; Function Attrs: mustprogress nofree norecurse nosync nounwind willreturn memory(argmem: read) uwtable
define dso_local noundef zeroext i1 @_ZNK4Luau7CodeGen3X6416IrCallWrapperX6427interferesWithActiveSourcesERKNS1_12CallArgumentEi(ptr noundef nonnull readonly align 8 captures(none) dereferenceable(240) %0, ptr noundef nonnull readonly align 4 captures(none) dereferenceable(25) %1, i32 noundef %2) local_unnamed_addr #8 align 2 {
  %4 = getelementptr inbounds nuw i8, ptr %0, i64 188
  %5 = load i32, ptr %4, align 4, !tbaa !29
  %.not1718 = icmp sgt i32 %5, 0
  br i1 %.not1718, label %.lr.ph, label %_ZNK4Luau7CodeGen3X6416IrCallWrapperX6421interferesWithOperandERKNS1_10OperandX64ENS1_11RegisterX64E.exit.thread

.lr.ph:                                           ; preds = %3
  %6 = getelementptr inbounds nuw i8, ptr %0, i64 20
  %7 = getelementptr inbounds nuw i8, ptr %1, i64 18
  %.sroa.0.0.copyload = load i8, ptr %7, align 2
  %8 = and i8 %.sroa.0.0.copyload, 7
  %9 = icmp eq i8 %8, 5
  %10 = zext i32 %2 to i64
  %wide.trip.count = zext nneg i32 %5 to i64
  br label %11

11:                                               ; preds = %.lr.ph, %.critedge
  %indvars.iv = phi i64 [ 0, %.lr.ph ], [ %indvars.iv.next, %.critedge ]
  %12 = getelementptr inbounds nuw [6 x %"struct.Luau::CodeGen::X64::CallArgument"], ptr %6, i64 0, i64 %indvars.iv
  %13 = getelementptr inbounds nuw i8, ptr %12, i64 24
  %14 = load i8, ptr %13, align 4, !tbaa !28, !range !87, !noundef !88
  %15 = trunc nuw i8 %14 to i1
  %.not = icmp ne i64 %indvars.iv, %10
  %or.cond.not = and i1 %.not, %15
  br i1 %or.cond.not, label %16, label %.critedge

16:                                               ; preds = %11
  %17 = getelementptr inbounds nuw i8, ptr %12, i64 6
  %.sroa.03.0.copyload.i = load i8, ptr %17, align 2, !tbaa !26
  %18 = and i8 %.sroa.03.0.copyload.i, 7
  %19 = icmp ne i8 %18, 5
  %20 = xor i1 %9, %19
  %.unshifted.i.i = xor i8 %.sroa.03.0.copyload.i, %.sroa.0.0.copyload
  %21 = icmp ult i8 %.unshifted.i.i, 8
  %or.cond.i = and i1 %21, %20
  br i1 %or.cond.i, label %_ZNK4Luau7CodeGen3X6416IrCallWrapperX6421interferesWithOperandERKNS1_10OperandX64ENS1_11RegisterX64E.exit.thread, label %_ZN4Luau7CodeGen3X64L22sameUnderlyingRegisterENS1_11RegisterX64ES2_.exit.thread.i

_ZN4Luau7CodeGen3X64L22sameUnderlyingRegisterENS1_11RegisterX64ES2_.exit.thread.i: ; preds = %16
  %22 = getelementptr inbounds nuw i8, ptr %12, i64 5
  %.sroa.01.0.copyload.i = load i8, ptr %22, align 1, !tbaa !26
  %23 = and i8 %.sroa.01.0.copyload.i, 7
  %24 = icmp ne i8 %23, 5
  %25 = xor i1 %9, %24
  %.unshifted.i7.i = xor i8 %.sroa.01.0.copyload.i, %.sroa.0.0.copyload
  %26 = icmp ult i8 %.unshifted.i7.i, 8
  %or.cond16 = and i1 %26, %25
  br i1 %or.cond16, label %_ZNK4Luau7CodeGen3X6416IrCallWrapperX6421interferesWithOperandERKNS1_10OperandX64ENS1_11RegisterX64E.exit.thread, label %.critedge

.critedge:                                        ; preds = %_ZN4Luau7CodeGen3X64L22sameUnderlyingRegisterENS1_11RegisterX64ES2_.exit.thread.i, %11
  %indvars.iv.next = add nuw nsw i64 %indvars.iv, 1
  %exitcond.not = icmp eq i64 %indvars.iv.next, %wide.trip.count
  br i1 %exitcond.not, label %_ZNK4Luau7CodeGen3X6416IrCallWrapperX6421interferesWithOperandERKNS1_10OperandX64ENS1_11RegisterX64E.exit.thread, label %11, !llvm.loop !89

_ZNK4Luau7CodeGen3X6416IrCallWrapperX6421interferesWithOperandERKNS1_10OperandX64ENS1_11RegisterX64E.exit.thread: ; preds = %.critedge, %16, %_ZN4Luau7CodeGen3X64L22sameUnderlyingRegisterENS1_11RegisterX64ES2_.exit.thread.i, %3
  %.not17.lcssa = phi i1 [ false, %3 ], [ true, %_ZN4Luau7CodeGen3X64L22sameUnderlyingRegisterENS1_11RegisterX64ES2_.exit.thread.i ], [ true, %16 ], [ false, %.critedge ]
  ret i1 %.not17.lcssa
}